target datalayout = "e-m:e-p270:32:32-p271:32:32-p272:64:64-i64:64-i128:128-f80:128-n8:16:32:64-S128"
target triple = "x86_64-pc-linux-gnu"

%struct.mz_zip_archive_tag = type { i64, i64, i32, i32, i32, ptr, ptr, ptr, ptr, ptr, ptr, ptr, ptr }
%struct.mz_zip_internal_state_tag = type { %struct.mz_zip_array, %struct.mz_zip_array, %struct.mz_zip_array, ptr, ptr, i64, i64 }
%struct.mz_zip_array = type { ptr, i64, i64, i32 }

; Function Attrs: mustprogress uwtable
define internal noundef i64 @_ZL22mz_zip_file_write_funcPvyPKvm(ptr noundef %0, i64 noundef %1, ptr noundef %2, i64 noundef %3) #5 {
  %5 = alloca i64, align 8
  %6 = alloca ptr, align 8
  %7 = alloca i64, align 8
  %8 = alloca ptr, align 8
  %9 = alloca i64, align 8
  %10 = alloca ptr, align 8
  %11 = alloca i64, align 8
  store ptr %0, ptr %6, align 8
  store i64 %1, ptr %7, align 8
  store ptr %2, ptr %8, align 8
  store i64 %3, ptr %9, align 8
  %12 = load ptr, ptr %6, align 8
  store ptr %12, ptr %10, align 8
  %13 = load ptr, ptr %10, align 8
  %14 = getelementptr inbounds %struct.mz_zip_archive_tag, ptr %13, i32 0, i32 12
  %15 = load ptr, ptr %14, align 8
  %16 = getelementptr inbounds %struct.mz_zip_internal_state_tag, ptr %15, i32 0, i32 3
  %17 = load ptr, ptr %16, align 8
  %18 = call i64 @ftello64(ptr noundef %17)
  store i64 %18, ptr %11, align 8
  %19 = load i64, ptr %7, align 8
  %20 = icmp slt i64 %19, 0
  br i1 %20, label %34, label %21

21:                                               ; preds = %4
  %22 = load i64, ptr %11, align 8
  %23 = load i64, ptr %7, align 8
  %24 = icmp ne i64 %22, %23
  br i1 %24, label %25, label %35

25:                                               ; preds = %21
  %26 = load ptr, ptr %10, align 8
  %27 = getelementptr inbounds %struct.mz_zip_archive_tag, ptr %26, i32 0, i32 12
  %28 = load ptr, ptr %27, align 8
  %29 = getelementptr inbounds %struct.mz_zip_internal_state_tag, ptr %28, i32 0, i32 3
  %30 = load ptr, ptr %29, align 8
  %31 = load i64, ptr %7, align 8
  %32 = call i32 @fseeko64(ptr noundef %30, i64 noundef %31, i32 noundef 0)
  %33 = icmp ne i32 %32, 0
  br i1 %33, label %34, label %35

34:                                               ; preds = %25, %4
  store i64 0, ptr %5, align 8
  br label %44

35:                                               ; preds = %25, %21
  %36 = load ptr, ptr %8, align 8
  %37 = load i64, ptr %9, align 8
  %38 = load ptr, ptr %10, align 8
  %39 = getelementptr inbounds %struct.mz_zip_archive_tag, ptr %38, i32 0, i32 12
  %40 = load ptr, ptr %39, align 8
  %41 = getelementptr inbounds %struct.mz_zip_internal_state_tag, ptr %40, i32 0, i32 3
  %42 = load ptr, ptr %41, align 8
  %43 = call i64 @fwrite(ptr noundef %36, i64 noundef 1, i64 noundef %37, ptr noundef %42)
  store i64 %43, ptr %5, align 8
  br label %44

44:                                               ; preds = %35, %34
  %45 = load i64, ptr %5, align 8
  ret i64 %45
}