; Function Attrs: mustprogress nofree nounwind uwtable
define internal noundef i64 @_ZL22mz_zip_file_write_funcPvyPKvm(ptr nocapture noundef readonly %0, i64 noundef %1, ptr nocapture noundef %2, i64 noundef %3) #25 {
  %5 = getelementptr inbounds i8, ptr %0, i64 88
  %6 = load ptr, ptr %5, align 8
  %7 = getelementptr inbounds i8, ptr %6, i64 96
  %8 = load ptr, ptr %7, align 8
  %9 = tail call i64 @ftello64(ptr noundef %8)
  %10 = icmp slt i64 %1, 0
  br i1 %10, label %22, label %11

11:                                               ; preds = %4
  %.not = icmp eq i64 %9, %1
  br i1 %.not, label %17, label %12

12:                                               ; preds = %11
  %13 = load ptr, ptr %5, align 8
  %14 = getelementptr inbounds i8, ptr %13, i64 96
  %15 = load ptr, ptr %14, align 8
  %16 = tail call i32 @fseeko64(ptr noundef %15, i64 noundef %1, i32 noundef 0)
  %.not11 = icmp eq i32 %16, 0
  br i1 %.not11, label %17, label %22

17:                                               ; preds = %12, %11
  %18 = load ptr, ptr %5, align 8
  %19 = getelementptr inbounds i8, ptr %18, i64 96
  %20 = load ptr, ptr %19, align 8
  %21 = tail call i64 @fwrite(ptr noundef %2, i64 noundef 1, i64 noundef %3, ptr noundef %20)
  br label %22

22:                                               ; preds = %4, %12, %17
  %.0 = phi i64 [ %21, %17 ], [ 0, %12 ], [ 0, %4 ]
  ret i64 %.0
}